; Function Attrs: mustprogress uwtable
define internal void @"_ZNSt17_Function_handlerIFN7rocksdb6StatusERKNS0_13ConfigOptionsERKNSt7__cxx1112basic_stringIcSt11char_traitsIcESaIcEEEPvENS0_3$_1EE9_M_invokeERKSt9_Any_dataS4_SC_OSD_"(ptr dead_on_unwind noalias writable sret(%"class.rocksdb::Status") align 8 %0, ptr nonnull readnone align 8 captures(none) %1, ptr noundef nonnull align 8 dereferenceable(80) %2, ptr nonnull readnone align 8 captures(none) %3, ptr noundef nonnull readonly align 8 captures(none) dereferenceable(8) %4) #6 align 2 {
  %.val = load ptr, ptr %4, align 8, !tbaa !64
  %.val.val = load ptr, ptr %.val, align 8, !tbaa !614
  %6 = load ptr, ptr %.val.val, align 8, !tbaa !83, !noalias !615
  %7 = getelementptr inbounds nuw i8, ptr %6, i64 40
  %8 = load ptr, ptr %7, align 8, !noalias !615
  tail call void %8(ptr dead_on_unwind writable sret(%"class.rocksdb::Status") align 8 %0, ptr noundef nonnull align 8 dereferenceable(32) %.val.val, ptr noundef nonnull align 8 dereferenceable(80) %2)
  ret void
}